; Function Attrs: nounwind uwtable
define dso_local ptr @alias_lookup(ptr noundef %0) local_unnamed_addr #0 {
  %2 = alloca %struct.config_alias_data, align 8
  call void @llvm.lifetime.start.p0(i64 24, ptr nonnull %2) #9
  store ptr %0, ptr %2, align 8, !tbaa !4
  %3 = getelementptr inbounds nuw i8, ptr %2, i64 8
  call void @llvm.memset.p0.i64(ptr noundef nonnull align 8 dereferenceable(16) %3, i8 0, i64 16, i1 false)
  %4 = load ptr, ptr @the_repository, align 8, !tbaa !11
  call void @read_early_config(ptr noundef %4, ptr noundef nonnull @config_alias_cb, ptr noundef nonnull %2) #9
  %5 = load ptr, ptr %3, align 8, !tbaa !13
  call void @llvm.lifetime.end.p0(i64 24, ptr nonnull %2) #9
  ret ptr %5
}